; Function Attrs: norecurse nounwind uwtable
define internal void @_ZN5faiss12_GLOBAL__N_133pairwise_extra_distances_templateINS_14VectorDistanceILNS_10MetricTypeE4EEEEEvT_lPKflS7_Pflll.omp_outlined(ptr noalias nocapture noundef readonly %0, ptr noalias nocapture readnone %1, ptr nocapture noundef nonnull readonly align 8 dereferenceable(8) %2, ptr nocapture noundef nonnull readonly align 8 dereferenceable(8) %3, ptr nocapture noundef nonnull readonly align 8 dereferenceable(8) %4, ptr nocapture noundef nonnull readonly align 8 dereferenceable(8) %5, ptr nocapture noundef nonnull readonly align 8 dereferenceable(8) %6, ptr nocapture noundef nonnull readonly align 8 dereferenceable(8) %7, ptr nocapture noundef nonnull readonly align 8 dereferenceable(8) %8, ptr nocapture noundef nonnull readonly align 8 dereferenceable(16) %9, ptr nocapture noundef nonnull readonly align 8 dereferenceable(8) %10) #4 {
  %12 = alloca i64, align 8
  %13 = alloca i64, align 8
  %14 = alloca i64, align 8
  %15 = alloca i32, align 4
  %16 = load i64, ptr %2, align 8
  %17 = icmp sgt i64 %16, 0
  br i1 %17, label %18, label %61

18:                                               ; preds = %11
  %19 = add nsw i64 %16, -1
  store i64 0, ptr %12, align 8
  store i64 %19, ptr %13, align 8
  store i64 1, ptr %14, align 8
  store i32 0, ptr %15, align 4
  %20 = load i32, ptr %0, align 4
  call void @__kmpc_for_static_init_8(ptr nonnull @1, i32 %20, i32 34, ptr nonnull %15, ptr nonnull %12, ptr nonnull %13, ptr nonnull %14, i64 1, i64 1)
  %21 = load i64, ptr %13, align 8
  %22 = call i64 @llvm.smin.i64(i64 %21, i64 %19)
  store i64 %22, ptr %13, align 8
  %23 = load i64, ptr %12, align 8
  %.not31 = icmp sgt i64 %23, %22
  br i1 %.not31, label %._crit_edge35, label %.lr.ph34

.lr.ph34:                                         ; preds = %18
  %24 = getelementptr inbounds i8, ptr %9, i64 8
  %25 = load i64, ptr %8, align 8
  %26 = icmp sgt i64 %25, 0
  br i1 %26, label %.lr.ph34.split, label %._crit_edge35

.lr.ph34.split:                                   ; preds = %.lr.ph34, %._crit_edge
  %27 = phi i64 [ %58, %._crit_edge ], [ %22, %.lr.ph34 ]
  %28 = phi i64 [ %59, %._crit_edge ], [ %25, %.lr.ph34 ]
  %.02732 = phi i64 [ %60, %._crit_edge ], [ %23, %.lr.ph34 ]
  %29 = load ptr, ptr %3, align 8
  %30 = load i64, ptr %4, align 8
  %31 = mul nsw i64 %30, %.02732
  %32 = getelementptr inbounds float, ptr %29, i64 %31
  %33 = load ptr, ptr %6, align 8
  %34 = load i64, ptr %7, align 8
  %35 = mul nsw i64 %34, %.02732
  %36 = getelementptr inbounds float, ptr %33, i64 %35
  %37 = icmp sgt i64 %28, 0
  br i1 %37, label %.lr.ph.preheader, label %._crit_edge

.lr.ph.preheader:                                 ; preds = %.lr.ph34.split
  %38 = load ptr, ptr %5, align 8
  br label %.lr.ph

.lr.ph:                                           ; preds = %.lr.ph.preheader, %_ZNK5faiss14VectorDistanceILNS_10MetricTypeE4EEclEPKfS4_.exit
  %.030 = phi i64 [ %55, %_ZNK5faiss14VectorDistanceILNS_10MetricTypeE4EEclEPKfS4_.exit ], [ 0, %.lr.ph.preheader ]
  %.02829 = phi ptr [ %54, %_ZNK5faiss14VectorDistanceILNS_10MetricTypeE4EEclEPKfS4_.exit ], [ %38, %.lr.ph.preheader ]
  %39 = load i64, ptr %9, align 8
  %.not.i = icmp eq i64 %39, 0
  br i1 %.not.i, label %_ZNK5faiss14VectorDistanceILNS_10MetricTypeE4EEclEPKfS4_.exit, label %.lr.ph.i

.lr.ph.i:                                         ; preds = %.lr.ph, %.lr.ph.i
  %.011.i = phi float [ %48, %.lr.ph.i ], [ 0.000000e+00, %.lr.ph ]
  %.0910.i = phi i64 [ %49, %.lr.ph.i ], [ 0, %.lr.ph ]
  %40 = getelementptr inbounds float, ptr %32, i64 %.0910.i
  %41 = load float, ptr %40, align 4
  %42 = getelementptr inbounds float, ptr %.02829, i64 %.0910.i
  %43 = load float, ptr %42, align 4
  %44 = fsub float %41, %43
  %45 = call float @llvm.fabs.f32(float %44)
  %46 = load float, ptr %24, align 8
  %47 = call float @powf(float noundef %45, float noundef %46) #5
  %48 = fadd float %.011.i, %47
  %49 = add nuw i64 %.0910.i, 1
  %50 = load i64, ptr %9, align 8
  %51 = icmp ult i64 %49, %50
  br i1 %51, label %.lr.ph.i, label %_ZNK5faiss14VectorDistanceILNS_10MetricTypeE4EEclEPKfS4_.exit, !llvm.loop !31

_ZNK5faiss14VectorDistanceILNS_10MetricTypeE4EEclEPKfS4_.exit: ; preds = %.lr.ph.i, %.lr.ph
  %.0.lcssa.i = phi float [ 0.000000e+00, %.lr.ph ], [ %48, %.lr.ph.i ]
  %52 = getelementptr inbounds float, ptr %36, i64 %.030
  store float %.0.lcssa.i, ptr %52, align 4
  %53 = load i64, ptr %10, align 8
  %54 = getelementptr inbounds float, ptr %.02829, i64 %53
  %55 = add nuw nsw i64 %.030, 1
  %56 = load i64, ptr %8, align 8
  %57 = icmp slt i64 %55, %56
  br i1 %57, label %.lr.ph, label %._crit_edge.loopexit, !llvm.loop !59

._crit_edge.loopexit:                             ; preds = %_ZNK5faiss14VectorDistanceILNS_10MetricTypeE4EEclEPKfS4_.exit
  %.pre = load i64, ptr %13, align 8
  br label %._crit_edge

._crit_edge:                                      ; preds = %._crit_edge.loopexit, %.lr.ph34.split
  %58 = phi i64 [ %.pre, %._crit_edge.loopexit ], [ %27, %.lr.ph34.split ]
  %59 = phi i64 [ %56, %._crit_edge.loopexit ], [ %28, %.lr.ph34.split ]
  %60 = add nsw i64 %.02732, 1
  %.not.not = icmp slt i64 %.02732, %58
  br i1 %.not.not, label %.lr.ph34.split, label %._crit_edge35, !llvm.loop !60

._crit_edge35:                                    ; preds = %._crit_edge, %.lr.ph34, %18
  call void @__kmpc_for_static_fini(ptr nonnull @1, i32 %20)
  br label %61

61:                                               ; preds = %._crit_edge35, %11
  ret void
}